target datalayout = "e-m:e-p270:32:32-p271:32:32-p272:64:64-i64:64-i128:128-f80:128-n8:16:32:64-S128"
target triple = "x86_64-pc-linux-gnu"

%struct.ASN1_ENCODING_st = type { ptr, i64, i32 }
%struct.X509_algor_st = type { ptr, ptr }
%struct.CRYPTO_REF_COUNT = type { i32 }
%struct.X509_req_st = type { %struct.X509_req_info_st, %struct.X509_algor_st, ptr, %struct.CRYPTO_REF_COUNT, ptr, ptr, ptr, ptr }
%struct.X509_req_info_st = type { %struct.ASN1_ENCODING_st, ptr, ptr, ptr, ptr }

@.str = private unnamed_addr constant [34 x i8] c"../openssl/crypto/x509/x509_req.c\00", align 1
@__func__.X509_REQ_add1_attr_by_NID = private unnamed_addr constant [26 x i8] c"X509_REQ_add1_attr_by_NID\00", align 1

; Function Attrs: nounwind uwtable
define i32 @X509_REQ_add1_attr_by_NID(ptr noundef %0, i32 noundef %1, i32 noundef %2, ptr noundef %3, i32 noundef %4) #0 {
  %6 = alloca i32, align 4
  %7 = alloca ptr, align 8
  %8 = alloca i32, align 4
  %9 = alloca i32, align 4
  %10 = alloca ptr, align 8
  %11 = alloca i32, align 4
  store ptr %0, ptr %7, align 8, !tbaa !42
  store i32 %1, ptr %8, align 4, !tbaa !52
  store i32 %2, ptr %9, align 4, !tbaa !52
  store ptr %3, ptr %10, align 8, !tbaa !65
  store i32 %4, ptr %11, align 4, !tbaa !52
  %12 = load ptr, ptr %7, align 8, !tbaa !42
  %13 = icmp eq ptr %12, null
  br i1 %13, label %14, label %15

14:                                               ; preds = %5
  call void @ERR_new()
  call void @ERR_set_debug(ptr noundef @.str, i32 noundef 282, ptr noundef @__func__.X509_REQ_add1_attr_by_NID)
  call void (i32, i32, ptr, ...) @ERR_set_error(i32 noundef 11, i32 noundef 786690, ptr noundef null)
  store i32 0, ptr %6, align 4
  br label %31

15:                                               ; preds = %5
  %16 = load ptr, ptr %7, align 8, !tbaa !42
  %17 = getelementptr inbounds nuw %struct.X509_req_st, ptr %16, i32 0, i32 0
  %18 = getelementptr inbounds nuw %struct.X509_req_info_st, ptr %17, i32 0, i32 4
  %19 = load i32, ptr %8, align 4, !tbaa !52
  %20 = load i32, ptr %9, align 4, !tbaa !52
  %21 = load ptr, ptr %10, align 8, !tbaa !65
  %22 = load i32, ptr %11, align 4, !tbaa !52
  %23 = call ptr @X509at_add1_attr_by_NID(ptr noundef %18, i32 noundef %19, i32 noundef %20, ptr noundef %21, i32 noundef %22)
  %24 = icmp ne ptr %23, null
  br i1 %24, label %26, label %25

25:                                               ; preds = %15
  store i32 0, ptr %6, align 4
  br label %31

26:                                               ; preds = %15
  %27 = load ptr, ptr %7, align 8, !tbaa !42
  %28 = getelementptr inbounds nuw %struct.X509_req_st, ptr %27, i32 0, i32 0
  %29 = getelementptr inbounds nuw %struct.X509_req_info_st, ptr %28, i32 0, i32 0
  %30 = getelementptr inbounds nuw %struct.ASN1_ENCODING_st, ptr %29, i32 0, i32 2
  store i32 1, ptr %30, align 8, !tbaa !67
  store i32 1, ptr %6, align 4
  br label %31

31:                                               ; preds = %26, %25, %14
  %32 = load i32, ptr %6, align 4
  ret i32 %32
}