; Function Attrs: nounwind uwtable
define range(i32 0, 2) i32 @X509_REQ_add1_attr_by_NID(ptr noundef %0, i32 noundef %1, i32 noundef %2, ptr noundef %3, i32 noundef %4) local_unnamed_addr #0 {
  %6 = icmp eq ptr %0, null
  br i1 %6, label %7, label %8

7:                                                ; preds = %5
  tail call void @ERR_new() #8
  tail call void @ERR_set_debug(ptr noundef nonnull @.str, i32 noundef 282, ptr noundef nonnull @__func__.X509_REQ_add1_attr_by_NID) #8
  tail call void (i32, i32, ptr, ...) @ERR_set_error(i32 noundef 11, i32 noundef 786690, ptr noundef null) #8
  br label %13

8:                                                ; preds = %5
  %9 = getelementptr inbounds nuw i8, ptr %0, i64 48
  %10 = tail call ptr @X509at_add1_attr_by_NID(ptr noundef nonnull %9, i32 noundef %1, i32 noundef %2, ptr noundef %3, i32 noundef %4) #8
  %.not = icmp eq ptr %10, null
  br i1 %.not, label %13, label %11

11:                                               ; preds = %8
  %12 = getelementptr inbounds nuw i8, ptr %0, i64 16
  store i32 1, ptr %12, align 8, !tbaa !54
  br label %13

13:                                               ; preds = %8, %11, %7
  %.0 = phi i32 [ 0, %7 ], [ 1, %11 ], [ 0, %8 ]
  ret i32 %.0
}